; Function Attrs: mustprogress uwtable
define hidden noundef ptr @_ZN7datalog21check_relation_plugin11mk_union_fnERKNS_13relation_baseES3_PS2_(ptr noundef nonnull readonly align 8 captures(none) dereferenceable(56) %0, ptr noundef nonnull readonly align 8 dereferenceable(28) %1, ptr noundef nonnull readonly align 8 dereferenceable(28) %2, ptr noundef readonly %3) unnamed_addr #3 align 2 personality ptr @__gxx_personality_v0 {
  %.not = icmp eq ptr %3, null
  br i1 %.not, label %11, label %5

5:                                                ; preds = %4
  %6 = tail call ptr @__dynamic_cast(ptr nonnull readonly align 8 dereferenceable(28) %3, ptr nonnull @_ZTIN7datalog13relation_baseE, ptr nonnull @_ZTIN7datalog14check_relationE, i64 0) #24
  %7 = icmp eq ptr %6, null
  br i1 %7, label %8, label %_ZN7datalog21check_relation_plugin3getERKNS_13relation_baseE.exit

8:                                                ; preds = %5
  tail call void @__cxa_bad_cast() #27
  unreachable

_ZN7datalog21check_relation_plugin3getERKNS_13relation_baseE.exit: ; preds = %5
  %9 = getelementptr inbounds nuw i8, ptr %6, i64 40
  %10 = load ptr, ptr %9, align 8, !tbaa !29
  br label %11

11:                                               ; preds = %4, %_ZN7datalog21check_relation_plugin3getERKNS_13relation_baseE.exit
  %12 = phi ptr [ %10, %_ZN7datalog21check_relation_plugin3getERKNS_13relation_baseE.exit ], [ null, %4 ]
  %13 = getelementptr inbounds nuw i8, ptr %0, i64 48
  %14 = load ptr, ptr %13, align 8, !tbaa !384
  %15 = tail call ptr @__dynamic_cast(ptr nonnull readonly align 8 dereferenceable(28) %1, ptr nonnull @_ZTIN7datalog13relation_baseE, ptr nonnull @_ZTIN7datalog14check_relationE, i64 0) #24
  %16 = icmp eq ptr %15, null
  br i1 %16, label %17, label %_ZN7datalog21check_relation_plugin3getERKNS_13relation_baseE.exit10

17:                                               ; preds = %11
  tail call void @__cxa_bad_cast() #27
  unreachable

_ZN7datalog21check_relation_plugin3getERKNS_13relation_baseE.exit10: ; preds = %11
  %18 = tail call ptr @__dynamic_cast(ptr nonnull readonly align 8 dereferenceable(28) %2, ptr nonnull @_ZTIN7datalog13relation_baseE, ptr nonnull @_ZTIN7datalog14check_relationE, i64 0) #24
  %19 = icmp eq ptr %18, null
  br i1 %19, label %20, label %_ZN7datalog21check_relation_plugin3getERKNS_13relation_baseE.exit11

20:                                               ; preds = %_ZN7datalog21check_relation_plugin3getERKNS_13relation_baseE.exit10
  tail call void @__cxa_bad_cast() #27
  unreachable

_ZN7datalog21check_relation_plugin3getERKNS_13relation_baseE.exit11: ; preds = %_ZN7datalog21check_relation_plugin3getERKNS_13relation_baseE.exit10
  %21 = getelementptr inbounds nuw i8, ptr %15, i64 40
  %22 = load ptr, ptr %21, align 8, !tbaa !29
  %23 = getelementptr inbounds nuw i8, ptr %18, i64 40
  %24 = load ptr, ptr %23, align 8, !tbaa !29
  %25 = load ptr, ptr %14, align 8, !tbaa !3
  %26 = getelementptr inbounds nuw i8, ptr %25, i64 120
  %27 = load ptr, ptr %26, align 8
  %28 = tail call noundef ptr %27(ptr noundef nonnull align 8 dereferenceable(32) %14, ptr noundef nonnull align 8 dereferenceable(28) %22, ptr noundef nonnull align 8 dereferenceable(28) %24, ptr noundef %12)
  %.not9 = icmp eq ptr %28, null
  br i1 %.not9, label %32, label %29

29:                                               ; preds = %_ZN7datalog21check_relation_plugin3getERKNS_13relation_baseE.exit11
  %30 = tail call noalias noundef ptr @_ZN6memory8allocateEm(i64 noundef 16)
  store ptr getelementptr inbounds nuw inrange(-16, 24) (i8, ptr @_ZTVN7datalog21check_relation_plugin8union_fnE, i64 16), ptr %30, align 8, !tbaa !3
  %31 = getelementptr inbounds nuw i8, ptr %30, i64 8
  store ptr %28, ptr %31, align 8, !tbaa !632
  br label %32

32:                                               ; preds = %_ZN7datalog21check_relation_plugin3getERKNS_13relation_baseE.exit11, %29
  %33 = phi ptr [ %30, %29 ], [ null, %_ZN7datalog21check_relation_plugin3getERKNS_13relation_baseE.exit11 ]
  ret ptr %33
}